; Function Attrs: mustprogress nounwind uwtable
define hidden noundef nonnull align 8 dereferenceable(32) ptr @_ZN4LIEF10hashstream5writeEPKhm(ptr noundef nonnull readonly returned align 8 dereferenceable(32) %0, ptr noundef %1, i64 noundef %2) local_unnamed_addr #1 align 2 {
  %4 = alloca %"struct.spdlog::source_loc", align 8
  %5 = alloca i64, align 8
  %6 = alloca i32, align 4
  %7 = alloca i64, align 8
  store i64 %2, ptr %5, align 8, !tbaa !19
  call void @llvm.lifetime.start.p0(i64 4, ptr nonnull %6) #22
  %8 = getelementptr inbounds nuw i8, ptr %0, i64 24
  %9 = load ptr, ptr %8, align 8, !tbaa !3
  %10 = tail call i32 @mbedtls_md_update(ptr noundef %9, ptr noundef %1, i64 noundef %2) #22
  store i32 %10, ptr %6, align 4, !tbaa !21
  %.not = icmp eq i32 %10, 0
  br i1 %.not, label %15, label %11

11:                                               ; preds = %3
  %12 = tail call noundef nonnull align 8 dereferenceable(16) ptr @_ZN4LIEF7logging6Logger8instanceEPKc(ptr noundef nonnull @.str.3) #22
  call void @llvm.lifetime.start.p0(i64 8, ptr nonnull %7) #22
  %13 = ptrtoint ptr %1 to i64
  store i64 %13, ptr %7, align 8, !tbaa !19
  %14 = load ptr, ptr %12, align 8, !tbaa !8
  call void @llvm.lifetime.start.p0(i64 24, ptr nonnull %4)
  call void @llvm.memset.p0.i64(ptr noundef nonnull align 8 dereferenceable(24) %4, i8 0, i64 24, i1 false)
  call void @_ZN6spdlog6logger4log_IJRKmS3_RKiEEEvNS_10source_locENS_5level10level_enumEN3fmt3v1017basic_string_viewIcEEDpOT_(ptr noundef nonnull align 8 dereferenceable(208) %14, ptr noundef nonnull byval(%"struct.spdlog::source_loc") align 8 %4, i32 noundef 3, ptr nonnull @.str.1, i64 59, ptr noundef nonnull align 8 dereferenceable(8) %7, ptr noundef nonnull align 8 dereferenceable(8) %5, ptr noundef nonnull align 4 dereferenceable(4) %6)
  call void @llvm.lifetime.end.p0(i64 24, ptr nonnull %4)
  call void @llvm.lifetime.end.p0(i64 8, ptr nonnull %7) #22
  br label %15

15:                                               ; preds = %11, %3
  call void @llvm.lifetime.end.p0(i64 4, ptr nonnull %6) #22
  ret ptr %0
}